CCS PCM C Compiler, Version 4.068, 61971               05-Dec-16 17:28

               Filename: C:\Users\tugdell\Desktop\uygulama_2\deneme_1.lst

               ROM used: 78 words (1%)
                         Largest free fragment is 2048
               RAM used: 8 (2%) at main() level
                         8 (2%) worst case
               Stack:    0 locations

*
0000:  MOVLW  00
0001:  MOVWF  0A
0002:  GOTO   004
0003:  NOP
.................... /******************************************************* 
.................... Uygulama Adi: PIC16F877 ile Led Yakma-Sondurme Programi 
.................... Programin Amaci: RB0 pini ile LED'i RA0 girisine bagli  
.................... buton üzerinden yakip sondurmek 
.................... *******************************************************/ 
....................  
....................  
.................... // Kullanilacak PIC'in baslik dosyasi tanitiliyor 
.................... #include <16f877.h>  
.................... //////// Standard Header file for the PIC16F877 device //////////////// 
.................... #device PIC16F877 
.................... #list 
....................  
....................  
.................... //PIC konfigurasyon ayarlari: 
.................... #fuses XT,NOWDT,NOPROTECT,NOBROWNOUT,NOLVP,NOPUT,NOWRT,NODEBUG,NOCPD 
....................  
.................... // Osilator frekansi seciliyor: 
.................... #use delay(clock=4000000) 
....................  
.................... // Port yonlendirme komutlari PORT(B) icin ayarlaniyor 
.................... #use fast_io(b) 
....................  
.................... int x; 
....................  
.................... void main() 
.................... { 
*
0004:  CLRF   04
0005:  BCF    03.7
0006:  MOVLW  1F
0007:  ANDWF  03,F
0008:  BSF    03.5
0009:  BSF    1F.0
000A:  BSF    1F.1
000B:  BSF    1F.2
000C:  BCF    1F.3
....................  
....................    setup_adc_ports(NO_ANALOGS); // Analog giris yok 
*
0010:  BSF    03.5
0011:  BSF    1F.0
0012:  BSF    1F.1
0013:  BSF    1F.2
0014:  BCF    1F.3
....................    setup_adc(ADC_OFF); // ADC birimi devre disi 
0015:  BCF    03.5
0016:  BCF    1F.0
....................    setup_psp(PSP_DISABLED); // PSP birimi devre disi 
0017:  BSF    03.5
0018:  BCF    09.4
....................    setup_spi(SPI_SS_DISABLED); //SPI interface birimi devre disi 
0019:  BCF    03.5
001A:  BCF    14.5
001B:  BCF    21.5
001C:  MOVF   21,W
001D:  BSF    03.5
001E:  MOVWF  07
001F:  BCF    03.5
0020:  BSF    21.4
0021:  MOVF   21,W
0022:  BSF    03.5
0023:  MOVWF  07
0024:  BCF    03.5
0025:  BCF    21.3
0026:  MOVF   21,W
0027:  BSF    03.5
0028:  MOVWF  07
0029:  MOVLW  01
002A:  BCF    03.5
002B:  MOVWF  14
002C:  MOVLW  00
002D:  BSF    03.5
002E:  MOVWF  14
....................    setup_timer_0(RTCC_INTERNAL|RTCC_DIV_1);// CCP birimi devre disi 
002F:  MOVF   01,W
0030:  ANDLW  C7
0031:  IORLW  08
0032:  MOVWF  01
....................    setup_timer_1(T1_DISABLED); // Timer 1 birimi devre disi 
0033:  BCF    03.5
0034:  CLRF   10
....................    setup_timer_2(T2_DISABLED,0,1); // Timer 2 birimi devre disi 
0035:  MOVLW  00
0036:  MOVWF  78
0037:  MOVWF  12
0038:  MOVLW  00
0039:  BSF    03.5
003A:  MOVWF  12
....................  
....................    set_tris_b(0x00); // PORT(B) komple cikis (output) olarak ayarlaniyor 
003B:  MOVWF  06
....................    set_tris_a(0x01); // PORT(A.0) pini komple giris (input) olarak ayarlaniyor 
003C:  MOVLW  01
003D:  MOVWF  05
....................    output_b(0x00); // PORT(B) komple cikisi sifir (low) yapiliyor 
003E:  BCF    03.5
003F:  CLRF   06
....................    while(1) 
....................    { 
....................       x=input(pin_a0); // PORT(A.0) pini okunuyor x degiskenine ataniyor 
0040:  BSF    03.5
0041:  BSF    05.0
0042:  BCF    03.5
0043:  CLRF   20
0044:  BTFSC  05.0
0045:  INCF   20,F
....................       output_bit(pin_b0,x); // x degiskeni RB0 pini cikisina akratiriliyor 
0046:  MOVF   20,F
0047:  BTFSS  03.2
0048:  GOTO   04B
0049:  BCF    06.0
004A:  GOTO   04C
004B:  BSF    06.0
....................    } 
004C:  GOTO   040
....................  
.................... } 
004D:  SLEEP

Configuration Fuses:
   Word  1: 3F39   XT NOWDT NOPUT NOPROTECT NOBROWNOUT NOLVP NOCPD NOWRT NODEBUG
